Certificate:
    Data:
        Version: 3 (0x2)
        Serial Number: 1 (0x1)
        Signature Algorithm: sha256WithRSAEncryption
        Issuer: C=FR, ST=Radius, L=Somewhere, O=Example Inc./emailAddress=admin@example.org, CN=Example Certificate Authority
        Validity
            Not Before: May 26 15:17:49 2023 GMT
            Not After : Jul 25 15:17:49 2023 GMT
        Subject: C=FR, ST=Radius, O=Example Inc., CN=Example Server Certificate/emailAddress=admin@example.org
        Subject Public Key Info:
            Public Key Algorithm: rsaEncryption
                RSA Public-Key: (2048 bit)
                Modulus:
                    00:b1:28:a2:3f:58:9c:ee:92:31:11:4f:f1:db:ca:
                    38:b0:41:92:38:cc:40:93:7b:6b:8c:81:af:32:09:
                    cf:43:ce:3c:27:7d:96:20:d2:b4:d9:f3:c8:9b:e2:
                    94:34:25:bb:1a:31:ef:9a:09:9c:3d:9e:53:c1:ca:
                    cd:20:a0:4d:89:cb:86:27:94:f6:1d:b5:7a:27:35:
                    b9:c3:19:e6:71:74:50:99:c4:82:aa:be:08:a1:dc:
                    d1:8b:59:01:2a:8d:97:a4:45:66:93:6e:c8:10:d0:
                    65:a0:75:a6:6d:84:0e:24:c9:cc:f7:93:d3:e2:68:
                    b5:03:60:e0:03:04:04:48:a0:cc:75:c3:70:34:67:
                    9d:ca:c0:5f:77:c8:65:4c:b1:82:2c:6f:12:17:17:
                    af:47:67:d2:22:6f:61:8e:b6:bc:71:15:ee:71:a2:
                    b1:bf:99:65:74:88:02:dc:c8:ac:0b:82:49:1c:e0:
                    a7:85:9d:dd:9d:33:66:69:f3:dc:0b:7a:42:2f:af:
                    d8:4d:41:fc:22:da:90:ae:0f:bc:6e:cf:89:5e:d7:
                    82:09:0f:45:47:52:ff:35:a6:b7:86:aa:52:ee:ee:
                    20:73:14:b7:ad:48:71:8e:ac:21:77:ba:56:44:2b:
                    d4:5b:fe:85:4e:da:9b:c0:f7:99:ae:dd:f6:0d:fd:
                    fb:d7
                Exponent: 65537 (0x10001)
        X509v3 extensions:
            X509v3 Extended Key Usage: 
                TLS Web Server Authentication
            X509v3 CRL Distribution Points: 

                Full Name:
                  URI:http://www.example.com/example_ca.crl

            X509v3 Certificate Policies: 
                Policy: 1.3.6.1.4.1.40808.1.3.2

    Signature Algorithm: sha256WithRSAEncryption
         4b:eb:c6:b9:14:de:4a:d6:ca:42:c6:54:00:12:06:ac:a9:ed:
         37:27:be:4e:34:91:c7:15:fa:be:76:a0:7b:5c:5f:de:1d:ba:
         a8:10:56:73:4c:b9:e6:85:3c:1c:b1:e3:65:01:43:e7:ac:12:
         22:4e:10:2d:57:59:61:3a:55:9b:50:b4:d6:d3:7e:bd:75:ec:
         12:1b:d4:e6:11:e1:48:69:39:b9:e0:f7:d5:58:62:cf:dd:40:
         46:f1:83:c8:a8:5f:d3:9e:d5:e5:6e:1c:77:0b:90:7a:8c:37:
         92:ff:84:0f:d4:9d:98:a5:0a:80:c7:00:14:03:61:2c:8c:66:
         d0:76:d8:34:31:a5:15:ac:63:db:f1:31:60:5b:f8:23:27:23:
         b0:c1:3c:65:39:2c:1d:d1:12:6d:5a:08:56:c2:b5:4e:65:dd:
         c0:e2:5f:77:9f:89:a9:43:36:4b:f1:ec:0c:e1:21:24:4e:4a:
         60:ef:9f:28:7d:9e:33:d1:ee:bf:57:de:23:aa:78:8a:61:89:
         be:b8:25:1b:34:1a:d1:e4:11:77:21:9b:d2:6d:71:1c:ce:54:
         08:16:eb:af:d2:17:46:b6:9d:94:69:14:5c:d4:cf:6c:b7:0a:
         5f:c4:0b:49:d4:28:33:2f:51:32:3d:59:21:d5:38:9c:24:b1:
         d6:4f:0f:7d
-----BEGIN CERTIFICATE-----
MIID9DCCAtygAwIBAgIBATANBgkqhkiG9w0BAQsFADCBkzELMAkGA1UEBhMCRlIx
DzANBgNVBAgMBlJhZGl1czESMBAGA1UEBwwJU29tZXdoZXJlMRUwEwYDVQQKDAxF
eGFtcGxlIEluYy4xIDAeBgkqhkiG9w0BCQEWEWFkbWluQGV4YW1wbGUub3JnMSYw
JAYDVQQDDB1FeGFtcGxlIENlcnRpZmljYXRlIEF1dGhvcml0eTAeFw0yMzA1MjYx
NTE3NDlaFw0yMzA3MjUxNTE3NDlaMHwxCzAJBgNVBAYTAkZSMQ8wDQYDVQQIDAZS
YWRpdXMxFTATBgNVBAoMDEV4YW1wbGUgSW5jLjEjMCEGA1UEAwwaRXhhbXBsZSBT
ZXJ2ZXIgQ2VydGlmaWNhdGUxIDAeBgkqhkiG9w0BCQEWEWFkbWluQGV4YW1wbGUu
b3JnMIIBIjANBgkqhkiG9w0BAQEFAAOCAQ8AMIIBCgKCAQEAsSiiP1ic7pIxEU/x
28o4sEGSOMxAk3trjIGvMgnPQ848J32WINK02fPIm+KUNCW7GjHvmgmcPZ5TwcrN
IKBNicuGJ5T2HbV6JzW5wxnmcXRQmcSCqr4IodzRi1kBKo2XpEVmk27IENBloHWm
bYQOJMnM95PT4mi1A2DgAwQESKDMdcNwNGedysBfd8hlTLGCLG8SFxevR2fSIm9h
jra8cRXucaKxv5lldIgC3MisC4JJHOCnhZ3dnTNmafPcC3pCL6/YTUH8ItqQrg+8
bs+JXteCCQ9FR1L/Naa3hqpS7u4gcxS3rUhxjqwhd7pWRCvUW/6FTtqbwPeZrt32
Df371wIDAQABo2kwZzATBgNVHSUEDDAKBggrBgEFBQcDATA2BgNVHR8ELzAtMCug
KaAnhiVodHRwOi8vd3d3LmV4YW1wbGUuY29tL2V4YW1wbGVfY2EuY3JsMBgGA1Ud
IAQRMA8wDQYLKwYBBAGCvmgBAwIwDQYJKoZIhvcNAQELBQADggEBAEvrxrkU3krW
ykLGVAASBqyp7Tcnvk40kccV+r52oHtcX94duqgQVnNMueaFPByx42UBQ+esEiJO
EC1XWWE6VZtQtNbTfr117BIb1OYR4UhpObng99VYYs/dQEbxg8ioX9Oe1eVuHHcL
kHqMN5L/hA/UnZilCoDHABQDYSyMZtB22DQxpRWsY9vxMWBb+CMnI7DBPGU5LB3R
Em1aCFbCtU5l3cDiX3efialDNkvx7AzhISROSmDvnyh9njPR7r9X3iOqeIphib64
JRs0GtHkEXchm9JtcRzOVAgW66/SF0a2nZRpFFzUz2y3Cl/EC0nUKDMvUTI9WSHV
OJwksdZPD30=
-----END CERTIFICATE-----
