Certificate:
    Data:
        Version: 3 (0x2)
        Serial Number: 2 (0x2)
        Signature Algorithm: sha256WithRSAEncryption
        Issuer: C=FR, ST=Radius, L=Somewhere, O=Example Inc./emailAddress=admin@example.org, CN=Example Certificate Authority
        Validity
            Not Before: May 26 15:17:49 2023 GMT
            Not After : Jul 25 15:17:49 2023 GMT
        Subject: C=FR, ST=Radius, O=Example Inc., CN=user@example.org/emailAddress=user@example.org
        Subject Public Key Info:
            Public Key Algorithm: rsaEncryption
                RSA Public-Key: (2048 bit)
                Modulus:
                    00:b6:cb:d5:91:89:e9:2e:18:75:6f:15:01:08:62:
                    22:d0:51:d7:51:df:07:5b:a6:e8:54:24:ee:b0:a3:
                    e1:06:37:d6:71:98:f1:f9:c0:c2:dc:35:a7:b3:61:
                    a2:6e:b1:fc:cc:a6:e8:ca:ad:44:d3:44:25:0d:67:
                    db:fc:ed:1d:97:3f:20:54:41:15:28:52:7a:ee:97:
                    ca:c5:a5:7f:10:32:96:77:80:0d:88:76:c3:d3:f5:
                    9b:ce:96:32:77:e1:63:df:c4:90:24:78:a9:81:61:
                    26:d9:fc:21:6b:65:44:d7:d6:88:24:21:e8:e0:7e:
                    cc:e0:3d:c9:68:e3:84:e7:91:22:7d:85:73:6c:c7:
                    4f:9f:35:a5:09:2f:b0:5b:b3:42:02:21:2d:e7:bd:
                    7f:41:78:07:74:f8:f9:7a:97:f9:1b:41:8f:fc:fa:
                    a2:1a:ed:7e:0a:fa:87:ff:a5:aa:a0:7b:eb:c1:57:
                    79:53:25:93:3f:3a:2c:31:c4:5b:c2:9f:fc:8a:4c:
                    aa:29:1e:af:d6:e8:7d:ca:9b:5d:5d:7d:7d:82:8e:
                    69:01:eb:a5:c2:07:a7:ef:ce:95:ea:4d:71:e8:e8:
                    ce:b9:12:84:6a:56:10:3d:8a:35:3a:d1:46:af:19:
                    79:2a:4b:e6:68:73:18:db:14:24:77:c6:36:38:53:
                    de:eb
                Exponent: 65537 (0x10001)
        X509v3 extensions:
            X509v3 Extended Key Usage: 
                TLS Web Client Authentication
            X509v3 CRL Distribution Points: 

                Full Name:
                  URI:http://www.example.com/example_ca.crl

    Signature Algorithm: sha256WithRSAEncryption
         27:c1:ce:aa:d4:22:d3:ab:df:e2:93:f2:b5:17:ee:3b:7f:c7:
         19:81:94:98:58:e0:f1:63:54:9a:a6:48:35:01:0e:c9:10:36:
         9e:29:d3:e8:ca:cc:71:b7:2d:cf:a9:74:7c:a3:e9:0f:87:86:
         1b:97:5e:06:4a:79:1d:8c:e9:06:04:ba:61:b3:28:7a:47:ea:
         6b:87:00:7c:14:cc:43:ba:ed:4e:a3:4a:86:bb:ee:9b:4e:32:
         70:5d:58:9f:90:f2:88:8a:ba:0e:19:d7:24:d4:de:b9:5b:83:
         38:ba:f9:64:ac:89:73:0e:9b:c8:6c:47:ec:d7:3d:45:35:f7:
         9e:6e:25:df:02:c0:df:e9:45:d7:95:5b:9b:70:e4:4b:c2:9e:
         57:14:cb:bc:f8:9d:5e:0e:fb:9f:7b:f2:47:10:8c:80:fa:7b:
         c4:31:83:b5:6d:ea:08:ab:8f:2a:2e:54:67:eb:a0:94:e4:d0:
         b9:a6:7c:7a:17:b2:84:c0:7f:0d:6b:7e:8a:f8:12:1f:e7:d0:
         0e:14:f0:39:76:a0:ef:62:ff:66:40:1a:0c:81:b5:c9:df:ab:
         5a:ea:fb:1d:4c:21:e4:41:f6:e9:30:7e:e6:3e:4a:38:66:36:
         92:2d:a6:39:d5:82:5d:9e:35:2a:9d:07:37:06:46:4b:b3:2c:
         6a:46:35:cf
-----BEGIN CERTIFICATE-----
MIIDzzCCAregAwIBAgIBAjANBgkqhkiG9w0BAQsFADCBkzELMAkGA1UEBhMCRlIx
DzANBgNVBAgMBlJhZGl1czESMBAGA1UEBwwJU29tZXdoZXJlMRUwEwYDVQQKDAxF
eGFtcGxlIEluYy4xIDAeBgkqhkiG9w0BCQEWEWFkbWluQGV4YW1wbGUub3JnMSYw
JAYDVQQDDB1FeGFtcGxlIENlcnRpZmljYXRlIEF1dGhvcml0eTAeFw0yMzA1MjYx
NTE3NDlaFw0yMzA3MjUxNTE3NDlaMHExCzAJBgNVBAYTAkZSMQ8wDQYDVQQIDAZS
YWRpdXMxFTATBgNVBAoMDEV4YW1wbGUgSW5jLjEZMBcGA1UEAwwQdXNlckBleGFt
cGxlLm9yZzEfMB0GCSqGSIb3DQEJARYQdXNlckBleGFtcGxlLm9yZzCCASIwDQYJ
KoZIhvcNAQEBBQADggEPADCCAQoCggEBALbL1ZGJ6S4YdW8VAQhiItBR11HfB1um
6FQk7rCj4QY31nGY8fnAwtw1p7Nhom6x/Mym6MqtRNNEJQ1n2/ztHZc/IFRBFShS
eu6XysWlfxAylneADYh2w9P1m86WMnfhY9/EkCR4qYFhJtn8IWtlRNfWiCQh6OB+
zOA9yWjjhOeRIn2Fc2zHT581pQkvsFuzQgIhLee9f0F4B3T4+XqX+RtBj/z6ohrt
fgr6h/+lqqB768FXeVMlkz86LDHEW8Kf/IpMqiker9bofcqbXV19fYKOaQHrpcIH
p+/OlepNcejozrkShGpWED2KNTrRRq8ZeSpL5mhzGNsUJHfGNjhT3usCAwEAAaNP
ME0wEwYDVR0lBAwwCgYIKwYBBQUHAwIwNgYDVR0fBC8wLTAroCmgJ4YlaHR0cDov
L3d3dy5leGFtcGxlLmNvbS9leGFtcGxlX2NhLmNybDANBgkqhkiG9w0BAQsFAAOC
AQEAJ8HOqtQi06vf4pPytRfuO3/HGYGUmFjg8WNUmqZINQEOyRA2ninT6MrMcbct
z6l0fKPpD4eGG5deBkp5HYzpBgS6YbMoekfqa4cAfBTMQ7rtTqNKhrvum04ycF1Y
n5DyiIq6DhnXJNTeuVuDOLr5ZKyJcw6byGxH7Nc9RTX3nm4l3wLA3+lF15Vbm3Dk
S8KeVxTLvPidXg77n3vyRxCMgPp7xDGDtW3qCKuPKi5UZ+uglOTQuaZ8eheyhMB/
DWt+ivgSH+fQDhTwOXag72L/ZkAaDIG1yd+rWur7HUwh5EH26TB+5j5KOGY2ki2m
OdWCXZ41Kp0HNwZGS7MsakY1zw==
-----END CERTIFICATE-----
